target datalayout = "e-m:e-p270:32:32-p271:32:32-p272:64:64-i64:64-i128:128-f80:128-n8:16:32:64-S128"
target triple = "x86_64-pc-linux-gnu"

%struct.TiffContext = type { ptr, ptr, %struct.GetByteContext, ptr, ptr, ptr, i32, i16, i32, i32, i32, i32, i32, i32, [256 x i32], i32, i32, i32, i32, i32, [2 x i32], i32, i32, i32, [4 x i32], i32, i32, i32, i32, [4 x i8], [4 x float], [4 x float], [4 x float], [3 x [4 x float]], [4 x [4 x float]], [4 x float], [4 x float], i32, [65536 x i16], i32, i16, i32, i32, i32, i32, i32, i32, i32, i32, ptr, i32, i32, i32, i32, i32, i32, ptr, i32, ptr, i32, i32, ptr }
%struct.GetByteContext = type { ptr, ptr, ptr }
%struct.TiffGeoTag = type { i32, i32, i32, i32, ptr }

; Function Attrs: nounwind uwtable
define internal void @free_geotags(ptr noundef %0) #1 {
  %2 = alloca ptr, align 8
  %3 = alloca i32, align 4
  store ptr %0, ptr %2, align 8, !tbaa !29
  call void @llvm.lifetime.start.p0(i64 4, ptr %3) #13
  store i32 0, ptr %3, align 4, !tbaa !39
  br label %4

4:                                                ; preds = %19, %1
  %5 = load i32, ptr %3, align 4, !tbaa !39
  %6 = load ptr, ptr %2, align 8, !tbaa !29
  %7 = getelementptr inbounds nuw %struct.TiffContext, ptr %6, i32 0, i32 60
  %8 = load i32, ptr %7, align 4, !tbaa !88
  %9 = icmp slt i32 %5, %8
  br i1 %9, label %11, label %10

10:                                               ; preds = %4
  call void @llvm.lifetime.end.p0(i64 4, ptr %3) #13
  br label %22

11:                                               ; preds = %4
  %12 = load ptr, ptr %2, align 8, !tbaa !29
  %13 = getelementptr inbounds nuw %struct.TiffContext, ptr %12, i32 0, i32 61
  %14 = load ptr, ptr %13, align 8, !tbaa !89
  %15 = load i32, ptr %3, align 4, !tbaa !39
  %16 = sext i32 %15 to i64
  %17 = getelementptr inbounds %struct.TiffGeoTag, ptr %14, i64 %16
  %18 = getelementptr inbounds nuw %struct.TiffGeoTag, ptr %17, i32 0, i32 4
  call void @av_freep(ptr noundef %18)
  br label %19

19:                                               ; preds = %11
  %20 = load i32, ptr %3, align 4, !tbaa !39
  %21 = add nsw i32 %20, 1
  store i32 %21, ptr %3, align 4, !tbaa !39
  br label %4, !llvm.loop !161

22:                                               ; preds = %10
  %23 = load ptr, ptr %2, align 8, !tbaa !29
  %24 = getelementptr inbounds nuw %struct.TiffContext, ptr %23, i32 0, i32 61
  call void @av_freep(ptr noundef %24)
  %25 = load ptr, ptr %2, align 8, !tbaa !29
  %26 = getelementptr inbounds nuw %struct.TiffContext, ptr %25, i32 0, i32 60
  store i32 0, ptr %26, align 4, !tbaa !88
  ret void
}