; Function Attrs: nounwind uwtable
define internal fastcc void @free_geotags(ptr noundef %0) unnamed_addr #1 {
  %2 = getelementptr inbounds nuw i8, ptr %0, i64 132564
  %3 = load i32, ptr %2, align 4, !tbaa !76
  %4 = icmp sgt i32 %3, 0
  br i1 %4, label %.lr.ph, label %._crit_edge

.lr.ph:                                           ; preds = %1
  %5 = getelementptr inbounds nuw i8, ptr %0, i64 132568
  br label %7

._crit_edge:                                      ; preds = %7, %1
  %6 = getelementptr inbounds nuw i8, ptr %0, i64 132568
  tail call void @av_freep(ptr noundef nonnull %6) #16
  store i32 0, ptr %2, align 4, !tbaa !76
  ret void

7:                                                ; preds = %.lr.ph, %7
  %indvars.iv = phi i64 [ 0, %.lr.ph ], [ %indvars.iv.next, %7 ]
  %8 = load ptr, ptr %5, align 8, !tbaa !77
  %9 = getelementptr inbounds nuw %struct.TiffGeoTag, ptr %8, i64 %indvars.iv, i32 4
  tail call void @av_freep(ptr noundef nonnull %9) #16
  %indvars.iv.next = add nuw nsw i64 %indvars.iv, 1
  %10 = load i32, ptr %2, align 4, !tbaa !76
  %11 = sext i32 %10 to i64
  %12 = icmp slt i64 %indvars.iv.next, %11
  br i1 %12, label %7, label %._crit_edge, !llvm.loop !78
}